target datalayout = "e-m:e-p270:32:32-p271:32:32-p272:64:64-i64:64-i128:128-f80:128-n8:16:32:64-S128"
target triple = "x86_64-pc-linux-gnu"

%struct.anon = type { i32, i32 }

@.str.3 = private unnamed_addr constant [3 x i8] c"rb\00", align 1
@stderr = external global ptr, align 8
@.str.17 = private unnamed_addr constant [2 x i8] c"\0A\00", align 1
@.str.19 = private unnamed_addr constant [16 x i8] c"/proc/self/auxv\00", align 1
@.str.20 = private unnamed_addr constant [29 x i8] c"fopen /proc/self/auxv failed\00", align 1

; Function Attrs: mustprogress uwtable
define internal noundef i32 @_ZL33get_elf_hwcap_from_proc_self_auxvj(i32 noundef %0) #1 {
  %2 = alloca i32, align 4
  %3 = alloca i32, align 4
  %4 = alloca ptr, align 8
  %5 = alloca i32, align 4
  %6 = alloca %struct.anon, align 4
  %7 = alloca i32, align 4
  %8 = alloca i32, align 4
  store i32 %0, ptr %3, align 4, !tbaa !9
  call void @llvm.lifetime.start.p0(i64 8, ptr %4) #17
  %9 = call noalias ptr @fopen(ptr noundef @.str.19, ptr noundef @.str.3)
  store ptr %9, ptr %4, align 8, !tbaa !15
  %10 = load ptr, ptr %4, align 8, !tbaa !15
  %11 = icmp ne ptr %10, null
  br i1 %11, label %20, label %12

12:                                               ; preds = %1
  br label %13

13:                                               ; preds = %12
  %14 = load ptr, ptr @stderr, align 8, !tbaa !15
  %15 = call i32 (ptr, ptr, ...) @fprintf(ptr noundef %14, ptr noundef @.str.20) #17
  %16 = load ptr, ptr @stderr, align 8, !tbaa !15
  %17 = call i32 (ptr, ptr, ...) @fprintf(ptr noundef %16, ptr noundef @.str.17) #17
  br label %18

18:                                               ; preds = %13
  br label %19

19:                                               ; preds = %18
  store i32 0, ptr %2, align 4
  store i32 1, ptr %5, align 4
  br label %58

20:                                               ; preds = %1
  call void @llvm.lifetime.start.p0(i64 8, ptr %6) #17
  call void @llvm.lifetime.start.p0(i64 4, ptr %7) #17
  store i32 0, ptr %7, align 4, !tbaa !9
  br label %21

21:                                               ; preds = %53, %20
  %22 = load ptr, ptr %4, align 8, !tbaa !15
  %23 = call i32 @feof(ptr noundef %22) #17
  %24 = icmp ne i32 %23, 0
  %25 = xor i1 %24, true
  br i1 %25, label %26, label %54

26:                                               ; preds = %21
  call void @llvm.lifetime.start.p0(i64 4, ptr %8) #17
  %27 = load ptr, ptr %4, align 8, !tbaa !15
  %28 = call i64 @fread(ptr noundef %6, i64 noundef 8, i64 noundef 1, ptr noundef %27)
  %29 = trunc i64 %28 to i32
  store i32 %29, ptr %8, align 4, !tbaa !9
  %30 = load i32, ptr %8, align 4, !tbaa !9
  %31 = icmp ne i32 %30, 1
  br i1 %31, label %32, label %33

32:                                               ; preds = %26
  store i32 5, ptr %5, align 4
  br label %51

33:                                               ; preds = %26
  %34 = getelementptr inbounds nuw %struct.anon, ptr %6, i32 0, i32 0
  %35 = load i32, ptr %34, align 4, !tbaa !65
  %36 = icmp eq i32 %35, 0
  br i1 %36, label %37, label %42

37:                                               ; preds = %33
  %38 = getelementptr inbounds nuw %struct.anon, ptr %6, i32 0, i32 1
  %39 = load i32, ptr %38, align 4, !tbaa !67
  %40 = icmp eq i32 %39, 0
  br i1 %40, label %41, label %42

41:                                               ; preds = %37
  store i32 5, ptr %5, align 4
  br label %51

42:                                               ; preds = %37, %33
  %43 = getelementptr inbounds nuw %struct.anon, ptr %6, i32 0, i32 0
  %44 = load i32, ptr %43, align 4, !tbaa !65
  %45 = load i32, ptr %3, align 4, !tbaa !9
  %46 = icmp eq i32 %44, %45
  br i1 %46, label %47, label %50

47:                                               ; preds = %42
  %48 = getelementptr inbounds nuw %struct.anon, ptr %6, i32 0, i32 1
  %49 = load i32, ptr %48, align 4, !tbaa !67
  store i32 %49, ptr %7, align 4, !tbaa !9
  store i32 5, ptr %5, align 4
  br label %51

50:                                               ; preds = %42
  store i32 0, ptr %5, align 4
  br label %51

51:                                               ; preds = %50, %47, %41, %32
  call void @llvm.lifetime.end.p0(i64 4, ptr %8) #17
  %52 = load i32, ptr %5, align 4
  switch i32 %52, label %60 [
    i32 0, label %53
    i32 5, label %54
  ]

53:                                               ; preds = %51
  br label %21, !llvm.loop !68

54:                                               ; preds = %51, %21
  %55 = load ptr, ptr %4, align 8, !tbaa !15
  %56 = call i32 @fclose(ptr noundef %55)
  %57 = load i32, ptr %7, align 4, !tbaa !9
  store i32 %57, ptr %2, align 4
  store i32 1, ptr %5, align 4
  call void @llvm.lifetime.end.p0(i64 4, ptr %7) #17
  call void @llvm.lifetime.end.p0(i64 8, ptr %6) #17
  br label %58

58:                                               ; preds = %54, %19
  call void @llvm.lifetime.end.p0(i64 8, ptr %4) #17
  %59 = load i32, ptr %2, align 4
  ret i32 %59

60:                                               ; preds = %51
  unreachable
}

; Function Attrs: mustprogress uwtable
define internal noundef i32 @_ZL13get_elf_hwcapj(i32 noundef %0) #1 {
  %2 = alloca i32, align 4
  %3 = alloca i32, align 4
  store i32 %0, ptr %2, align 4, !tbaa !9
  call void @llvm.lifetime.start.p0(i64 4, ptr %3) #17
  store i32 0, ptr %3, align 4, !tbaa !9
  %4 = load i32, ptr %3, align 4, !tbaa !9
  %5 = icmp ne i32 %4, 0
  br i1 %5, label %9, label %6

6:                                                ; preds = %1
  %7 = load i32, ptr %2, align 4, !tbaa !9
  %8 = call noundef i32 @_ZL33get_elf_hwcap_from_proc_self_auxvj(i32 noundef %7)
  store i32 %8, ptr %3, align 4, !tbaa !9
  br label %9

9:                                                ; preds = %6, %1
  %10 = load i32, ptr %3, align 4, !tbaa !9
  call void @llvm.lifetime.end.p0(i64 4, ptr %3) #17
  ret i32 %10
}