; Function Attrs: mustprogress nofree nounwind uwtable
define internal fastcc void @_ZL13get_elf_hwcapj(i32 noundef range(i32 16, 27) %0) unnamed_addr #7 {
  %2 = alloca %struct.anon, align 4
  %3 = tail call noalias ptr @fopen(ptr noundef nonnull @.str.19, ptr noundef nonnull @.str.3)
  %.not.i = icmp eq ptr %3, null
  br i1 %.not.i, label %4, label %8

4:                                                ; preds = %1
  %5 = load ptr, ptr @stderr, align 8, !tbaa !15
  %6 = tail call i64 @fwrite(ptr nonnull @.str.20, i64 28, i64 1, ptr %5) #30
  %7 = load ptr, ptr @stderr, align 8, !tbaa !15
  %fputc.i = tail call i32 @fputc(i32 10, ptr %7)
  br label %_ZL33get_elf_hwcap_from_proc_self_auxvj.exit

8:                                                ; preds = %1
  call void @llvm.lifetime.start.p0(i64 8, ptr nonnull %2) #18
  %9 = getelementptr inbounds nuw i8, ptr %2, i64 4
  br label %10

10:                                               ; preds = %15, %8
  %11 = tail call i32 @feof(ptr noundef nonnull %3) #18
  %.not13.i = icmp eq i32 %11, 0
  br i1 %.not13.i, label %12, label %.thread.i

12:                                               ; preds = %10
  %13 = call i64 @fread(ptr noundef nonnull %2, i64 noundef 8, i64 noundef 1, ptr noundef nonnull %3)
  %14 = and i64 %13, 4294967295
  %.not14.i = icmp eq i64 %14, 1
  br i1 %.not14.i, label %15, label %.thread.i

15:                                               ; preds = %12
  %16 = load i32, ptr %2, align 4, !tbaa !27
  %17 = icmp eq i32 %16, 0
  %18 = load i32, ptr %9, align 4
  %19 = icmp eq i32 %18, 0
  %or.cond.i = select i1 %17, i1 %19, i1 false
  %20 = icmp eq i32 %16, %0
  %or.cond = or i1 %or.cond.i, %20
  br i1 %or.cond, label %.thread.i, label %10

.thread.i:                                        ; preds = %15, %12, %10
  %21 = tail call i32 @fclose(ptr noundef nonnull %3)
  call void @llvm.lifetime.end.p0(i64 8, ptr nonnull %2) #18
  br label %_ZL33get_elf_hwcap_from_proc_self_auxvj.exit

_ZL33get_elf_hwcap_from_proc_self_auxvj.exit:     ; preds = %4, %.thread.i
  ret void
}